target datalayout = "e-m:e-p270:32:32-p271:32:32-p272:64:64-i64:64-i128:128-f80:128-n8:16:32:64-S128"
target triple = "x86_64-pc-linux-gnu"

%struct.AVCodecContext = type { ptr, i32, i32, ptr, i32, i32, ptr, ptr, ptr, i64, i32, i32, ptr, i32, %struct.AVRational, %struct.AVRational, %struct.AVRational, i32, i32, i32, i32, i32, %struct.AVRational, i32, i32, i32, i32, i32, i32, i32, i32, i32, i32, i32, ptr, ptr, i32, float, float, float, float, float, float, float, float, float, i32, i32, i32, i32, i32, i32, i32, i32, i32, i32, i32, i32, ptr, ptr, ptr, i32, i32, i32, i32, i32, i32, i32, i32, i32, i32, %struct.AVChannelLayout, i32, i32, i32, i32, i32, i32, i32, i32, ptr, i32, i32, i32, float, float, i32, i32, i32, i32, i32, ptr, i64, i64, float, float, i32, i32, ptr, ptr, i32, i32, i32, i32, i32, ptr, ptr, ptr, ptr, i32, i32, [8 x i64], i32, i32, i32, i32, i32, i32, i32, ptr, ptr, i32, i32, i32, i32, i32, i32, i32, i32, i32, i32, ptr, ptr, i32, i32, ptr, ptr, ptr, ptr, i32, i32, i64, i32, i32, i64, ptr, i64, ptr, i32, ptr, i32 }
%struct.AVRational = type { i32, i32 }
%struct.AVChannelLayout = type { i32, i32, %union.anon.0, ptr }
%union.anon.0 = type { i64 }
%struct.MSS1Context = type { %struct.MSS12Context, ptr, %struct.SliceContext }
%struct.MSS12Context = type { ptr, [256 x i32], ptr, ptr, i64, ptr, i64, ptr, ptr, i64, i32, i32, i32, i32, i32, i32, i32 }
%struct.SliceContext = type { ptr, %struct.Model, %struct.Model, %struct.Model, %struct.Model, %struct.Model, %struct.PixContext, %struct.PixContext }
%struct.Model = type { [257 x i16], [257 x i16], [257 x i8], i32, i32, i32 }
%struct.PixContext = type { i32, i32, [12 x i8], %struct.Model, %struct.Model, [15 x [4 x %struct.Model]], i32 }

; Function Attrs: cold nounwind optsize uwtable
define internal i32 @mss1_decode_init(ptr noundef %0) #0 {
  %2 = alloca i32, align 4
  %3 = alloca ptr, align 8
  %4 = alloca ptr, align 8
  %5 = alloca i32, align 4
  %6 = alloca i32, align 4
  store ptr %0, ptr %3, align 8, !tbaa !4
  call void @llvm.lifetime.start.p0(i64 8, ptr %4) #7
  %7 = load ptr, ptr %3, align 8, !tbaa !4
  %8 = getelementptr inbounds nuw %struct.AVCodecContext, ptr %7, i32 0, i32 6
  %9 = load ptr, ptr %8, align 8, !tbaa !9
  store ptr %9, ptr %4, align 8, !tbaa !29
  call void @llvm.lifetime.start.p0(i64 4, ptr %5) #7
  %10 = load ptr, ptr %3, align 8, !tbaa !4
  %11 = load ptr, ptr %4, align 8, !tbaa !29
  %12 = getelementptr inbounds nuw %struct.MSS1Context, ptr %11, i32 0, i32 0
  %13 = getelementptr inbounds nuw %struct.MSS12Context, ptr %12, i32 0, i32 0
  store ptr %10, ptr %13, align 8, !tbaa !31
  %14 = call ptr @av_frame_alloc()
  %15 = load ptr, ptr %4, align 8, !tbaa !29
  %16 = getelementptr inbounds nuw %struct.MSS1Context, ptr %15, i32 0, i32 1
  store ptr %14, ptr %16, align 8, !tbaa !39
  %17 = load ptr, ptr %4, align 8, !tbaa !29
  %18 = getelementptr inbounds nuw %struct.MSS1Context, ptr %17, i32 0, i32 1
  %19 = load ptr, ptr %18, align 8, !tbaa !39
  %20 = icmp ne ptr %19, null
  br i1 %20, label %22, label %21

21:                                               ; preds = %1
  store i32 -12, ptr %2, align 4
  store i32 1, ptr %6, align 4
  br label %36

22:                                               ; preds = %1
  %23 = load ptr, ptr %4, align 8, !tbaa !29
  %24 = getelementptr inbounds nuw %struct.MSS1Context, ptr %23, i32 0, i32 0
  %25 = load ptr, ptr %4, align 8, !tbaa !29
  %26 = getelementptr inbounds nuw %struct.MSS1Context, ptr %25, i32 0, i32 2
  %27 = call i32 @ff_mss12_decode_init(ptr noundef %24, i32 noundef 0, ptr noundef %26, ptr noundef null)
  store i32 %27, ptr %5, align 4, !tbaa !40
  %28 = load i32, ptr %5, align 4, !tbaa !40
  %29 = icmp slt i32 %28, 0
  br i1 %29, label %30, label %32

30:                                               ; preds = %22
  %31 = load i32, ptr %5, align 4, !tbaa !40
  store i32 %31, ptr %2, align 4
  store i32 1, ptr %6, align 4
  br label %36

32:                                               ; preds = %22
  %33 = load ptr, ptr %3, align 8, !tbaa !4
  %34 = getelementptr inbounds nuw %struct.AVCodecContext, ptr %33, i32 0, i32 23
  store i32 11, ptr %34, align 8, !tbaa !41
  %35 = load i32, ptr %5, align 4, !tbaa !40
  store i32 %35, ptr %2, align 4
  store i32 1, ptr %6, align 4
  br label %36

36:                                               ; preds = %32, %30, %21
  call void @llvm.lifetime.end.p0(i64 4, ptr %5) #7
  call void @llvm.lifetime.end.p0(i64 8, ptr %4) #7
  %37 = load i32, ptr %2, align 4
  ret i32 %37
}