; Function Attrs: cold nounwind optsize uwtable
define internal i32 @mss1_decode_init(ptr noundef %0) #0 {
  %2 = getelementptr inbounds nuw i8, ptr %0, i64 32
  %3 = load ptr, ptr %2, align 8, !tbaa !4
  store ptr %0, ptr %3, align 8, !tbaa !27
  %4 = tail call ptr @av_frame_alloc() #7
  %5 = getelementptr inbounds nuw i8, ptr %3, i64 1128
  store ptr %4, ptr %5, align 8, !tbaa !36
  %.not = icmp eq ptr %4, null
  br i1 %.not, label %12, label %6

6:                                                ; preds = %1
  %7 = getelementptr inbounds nuw i8, ptr %3, i64 1136
  %8 = tail call i32 @ff_mss12_decode_init(ptr noundef nonnull %3, i32 noundef 0, ptr noundef nonnull %7, ptr noundef null) #7
  %9 = icmp slt i32 %8, 0
  br i1 %9, label %12, label %10

10:                                               ; preds = %6
  %11 = getelementptr inbounds nuw i8, ptr %0, i64 136
  store i32 11, ptr %11, align 8, !tbaa !37
  br label %12

12:                                               ; preds = %6, %1, %10
  %.0 = phi i32 [ %8, %10 ], [ -12, %1 ], [ %8, %6 ]
  ret i32 %.0
}